; Function Attrs: mustprogress uwtable
define hidden noundef ptr @_ZN6dimacs11drat_parser11parse_sexprEv(ptr noundef nonnull align 8 dereferenceable(88) %this) local_unnamed_addr #3 align 2 {
entry:
  %m_val.i = getelementptr inbounds i8, ptr %this, i64 8
  %0 = load i32, ptr %m_val.i, align 8
  %cmp = icmp eq i32 %0, 124
  br i1 %cmp, label %if.then, label %if.end

if.then:                                          ; preds = %entry
  %call2 = tail call noundef ptr @_ZN6dimacs11drat_parser19parse_quoted_symbolEv(ptr noundef nonnull align 8 dereferenceable(88) %this)
  br label %return

if.end:                                           ; preds = %entry
  %m_buffer = getelementptr inbounds i8, ptr %this, i64 80
  %1 = load ptr, ptr %m_buffer, align 8
  %tobool.not.i = icmp eq ptr %1, null
  br i1 %tobool.not.i, label %_ZN6vectorIcLb0EjE5resetEv.exit, label %if.then.i

if.then.i:                                        ; preds = %if.end
  %arrayidx.i = getelementptr inbounds i8, ptr %1, i64 -4
  store i32 0, ptr %arrayidx.i, align 4
  %this.val27.pre = load i32, ptr %m_val.i, align 8
  br label %_ZN6vectorIcLb0EjE5resetEv.exit

_ZN6vectorIcLb0EjE5resetEv.exit:                  ; preds = %if.end, %if.then.i
  %this.val27 = phi i32 [ %0, %if.end ], [ %this.val27.pre, %if.then.i ]
  switch i32 %this.val27, label %while.body.lr.ph [
    i32 32, label %while.end
    i32 13, label %while.end
    i32 12, label %while.end
    i32 11, label %while.end
    i32 10, label %while.end
    i32 9, label %while.end
  ]

while.body.lr.ph:                                 ; preds = %_ZN6vectorIcLb0EjE5resetEv.exit
  %m_line.i = getelementptr inbounds i8, ptr %this, i64 12
  br label %while.body

while.body:                                       ; preds = %while.body.lr.ph, %_ZN6dimacs13stream_bufferppEv.exit
  %cmp533 = phi i1 [ true, %while.body.lr.ph ], [ %cmp5, %_ZN6dimacs13stream_bufferppEv.exit ]
  %this.val32 = phi i32 [ %this.val27, %while.body.lr.ph ], [ %call.i, %_ZN6dimacs13stream_bufferppEv.exit ]
  %lp.031 = phi i32 [ 0, %while.body.lr.ph ], [ %lp.1, %_ZN6dimacs13stream_bufferppEv.exit ]
  %conv = trunc i32 %this.val32 to i8
  %2 = load ptr, ptr %m_buffer, align 8
  %cmp.i = icmp eq ptr %2, null
  br i1 %cmp.i, label %if.then.i6, label %lor.lhs.false.i

lor.lhs.false.i:                                  ; preds = %while.body
  %arrayidx.i5 = getelementptr inbounds i8, ptr %2, i64 -4
  %3 = load i32, ptr %arrayidx.i5, align 4
  %arrayidx4.i = getelementptr inbounds i8, ptr %2, i64 -8
  %4 = load i32, ptr %arrayidx4.i, align 4
  %cmp5.i = icmp eq i32 %3, %4
  br i1 %cmp5.i, label %if.then.i6, label %_ZN6vectorIcLb0EjE9push_backEOc.exit

if.then.i6:                                       ; preds = %lor.lhs.false.i, %while.body
  tail call void @_ZN6vectorIcLb0EjE13expand_vectorEv(ptr noundef nonnull align 8 dereferenceable(8) %m_buffer)
  %.pre.i = load ptr, ptr %m_buffer, align 8
  %arrayidx8.phi.trans.insert.i = getelementptr inbounds i8, ptr %.pre.i, i64 -4
  %.pre1.i = load i32, ptr %arrayidx8.phi.trans.insert.i, align 4
  br label %_ZN6vectorIcLb0EjE9push_backEOc.exit

_ZN6vectorIcLb0EjE9push_backEOc.exit:             ; preds = %lor.lhs.false.i, %if.then.i6
  %5 = phi i32 [ %.pre1.i, %if.then.i6 ], [ %3, %lor.lhs.false.i ]
  %6 = phi ptr [ %.pre.i, %if.then.i6 ], [ %2, %lor.lhs.false.i ]
  %idx.ext.i = zext i32 %5 to i64
  %add.ptr.i = getelementptr inbounds i8, ptr %6, i64 %idx.ext.i
  store i8 %conv, ptr %add.ptr.i, align 1
  %7 = load ptr, ptr %m_buffer, align 8
  %arrayidx10.i = getelementptr inbounds i8, ptr %7, i64 -4
  %8 = load i32, ptr %arrayidx10.i, align 4
  %inc.i = add i32 %8, 1
  store i32 %inc.i, ptr %arrayidx10.i, align 4
  %9 = load i32, ptr %m_val.i, align 8
  switch i32 %9, label %if.end23 [
    i32 40, label %if.then13
    i32 41, label %if.then17
  ]

if.then13:                                        ; preds = %_ZN6vectorIcLb0EjE9push_backEOc.exit
  %inc = add i32 %lp.031, 1
  br label %if.end23

if.then17:                                        ; preds = %_ZN6vectorIcLb0EjE9push_backEOc.exit
  br i1 %cmp533, label %if.then19, label %if.else20

if.then19:                                        ; preds = %if.then17
  %exception = tail call ptr @__cxa_allocate_exception(i64 1) #16
  tail call void @__cxa_throw(ptr %exception, ptr nonnull @_ZTIN6dimacs9lex_errorE, ptr null) #17
  unreachable

if.else20:                                        ; preds = %if.then17
  %dec = add i32 %lp.031, -1
  br label %if.end23

if.end23:                                         ; preds = %_ZN6vectorIcLb0EjE9push_backEOc.exit, %if.else20, %if.then13
  %lp.1 = phi i32 [ %inc, %if.then13 ], [ %dec, %if.else20 ], [ %lp.031, %_ZN6vectorIcLb0EjE9push_backEOc.exit ]
  %10 = load ptr, ptr %this, align 8
  %call.i = tail call noundef i32 @_ZNSi3getEv(ptr noundef nonnull align 8 dereferenceable(16) %10)
  store i32 %call.i, ptr %m_val.i, align 8
  %cmp.i10 = icmp eq i32 %call.i, 10
  br i1 %cmp.i10, label %if.then.i11, label %_ZN6dimacs13stream_bufferppEv.exit

if.then.i11:                                      ; preds = %if.end23
  %11 = load i32, ptr %m_line.i, align 4
  %inc.i12 = add i32 %11, 1
  store i32 %inc.i12, ptr %m_line.i, align 4
  br label %_ZN6dimacs13stream_bufferppEv.exit

_ZN6dimacs13stream_bufferppEv.exit:               ; preds = %if.end23, %if.then.i11
  %12 = add i32 %call.i, -9
  %or.cond.i = icmp ult i32 %12, 5
  %cmp4.i = icmp eq i32 %call.i, 32
  %spec.select.i = or i1 %cmp4.i, %or.cond.i
  %cmp5 = icmp eq i32 %lp.1, 0
  %.not = select i1 %spec.select.i, i1 %cmp5, i1 false
  br i1 %.not, label %while.end, label %while.body, !llvm.loop !16

while.end:                                        ; preds = %_ZN6dimacs13stream_bufferppEv.exit, %_ZN6vectorIcLb0EjE5resetEv.exit, %_ZN6vectorIcLb0EjE5resetEv.exit, %_ZN6vectorIcLb0EjE5resetEv.exit, %_ZN6vectorIcLb0EjE5resetEv.exit, %_ZN6vectorIcLb0EjE5resetEv.exit, %_ZN6vectorIcLb0EjE5resetEv.exit
  %13 = load ptr, ptr %m_buffer, align 8
  %cmp.i13 = icmp eq ptr %13, null
  br i1 %cmp.i13, label %if.then.i22, label %lor.lhs.false.i14

lor.lhs.false.i14:                                ; preds = %while.end
  %arrayidx.i15 = getelementptr inbounds i8, ptr %13, i64 -4
  %14 = load i32, ptr %arrayidx.i15, align 4
  %arrayidx4.i16 = getelementptr inbounds i8, ptr %13, i64 -8
  %15 = load i32, ptr %arrayidx4.i16, align 4
  %cmp5.i17 = icmp eq i32 %14, %15
  br i1 %cmp5.i17, label %if.then.i22, label %_ZN6vectorIcLb0EjE9push_backEOc.exit26

if.then.i22:                                      ; preds = %lor.lhs.false.i14, %while.end
  tail call void @_ZN6vectorIcLb0EjE13expand_vectorEv(ptr noundef nonnull align 8 dereferenceable(8) %m_buffer)
  %.pre.i23 = load ptr, ptr %m_buffer, align 8
  %arrayidx8.phi.trans.insert.i24 = getelementptr inbounds i8, ptr %.pre.i23, i64 -4
  %.pre1.i25 = load i32, ptr %arrayidx8.phi.trans.insert.i24, align 4
  br label %_ZN6vectorIcLb0EjE9push_backEOc.exit26

_ZN6vectorIcLb0EjE9push_backEOc.exit26:           ; preds = %lor.lhs.false.i14, %if.then.i22
  %16 = phi i32 [ %.pre1.i25, %if.then.i22 ], [ %14, %lor.lhs.false.i14 ]
  %17 = phi ptr [ %.pre.i23, %if.then.i22 ], [ %13, %lor.lhs.false.i14 ]
  %idx.ext.i18 = zext i32 %16 to i64
  %add.ptr.i19 = getelementptr inbounds i8, ptr %17, i64 %idx.ext.i18
  store i8 0, ptr %add.ptr.i19, align 1
  %18 = load ptr, ptr %m_buffer, align 8
  %arrayidx10.i20 = getelementptr inbounds i8, ptr %18, i64 -4
  %19 = load i32, ptr %arrayidx10.i20, align 4
  %inc.i21 = add i32 %19, 1
  store i32 %inc.i21, ptr %arrayidx10.i20, align 4
  %20 = load ptr, ptr %m_buffer, align 8
  br label %return

return:                                           ; preds = %_ZN6vectorIcLb0EjE9push_backEOc.exit26, %if.then
  %retval.0 = phi ptr [ %call2, %if.then ], [ %20, %_ZN6vectorIcLb0EjE9push_backEOc.exit26 ]
  ret ptr %retval.0
}